ccopy_reg
_reconstructor
p1
(csklearn.pipeline
Pipeline
p2
c__builtin__
object
p3
NtRp4
(dp5
S'_sklearn_version'
p6
S'0.18.2'
p7
sS'steps'
p8
(lp9
(S'normOut'
p10
g1
(csklearn.preprocessing.data
StandardScaler
p11
g3
NtRp12
(dp13
S'mean_'
p14
cnumpy.core.multiarray
scalar
p15
(cnumpy
dtype
p16
(S'f8'
I0
I1
tRp17
(I3
S'<'
NNNI-1
I-1
I0
tbS'\xb8\x1e\x85\xeb\x19\xf0 @'
tRp18
sS'with_mean'
p19
I01
sS'var_'
p20
g15
(g17
S'\x00\x00\x00\xc0I\x81Z@'
tRp21
sS'scale_'
p22
g15
(g17
S'\xc1\xb2\xbb\xf0\xdc\x97$@'
tRp23
sS'with_std'
p24
I01
sS'n_samples_seen_'
p25
I100
sg6
g7
sS'copy'
p26
I01
sbtp27
asb.